target datalayout = "e-m:e-p270:32:32-p271:32:32-p272:64:64-i64:64-i128:128-f80:128-n8:16:32:64-S128"
target triple = "x86_64-pc-linux-gnu"

%"class.clang::QualType" = type { %"class.llvm::PointerIntPair.139" }
%"class.llvm::PointerIntPair.139" = type { %"struct.llvm::detail::PunnedPointer.140" }
%"struct.llvm::detail::PunnedPointer.140" = type { [8 x i8] }
%"class.clang::SourceLocation" = type { i32 }
%"class.llvm::PointerIntPair" = type { %"struct.llvm::detail::PunnedPointer" }
%"struct.llvm::detail::PunnedPointer" = type { [8 x i8] }
%"class.llvm::PointerUnion" = type { %"class.llvm::pointer_union_detail::PointerUnionMembers" }
%"class.llvm::pointer_union_detail::PointerUnionMembers" = type { %"class.llvm::pointer_union_detail::PointerUnionMembers.0" }
%"class.llvm::pointer_union_detail::PointerUnionMembers.0" = type { %"class.llvm::pointer_union_detail::PointerUnionMembers.1" }
%"class.llvm::pointer_union_detail::PointerUnionMembers.1" = type { %"class.llvm::PointerIntPair.2" }
%"class.llvm::PointerIntPair.2" = type { %"struct.llvm::detail::PunnedPointer.3" }
%"struct.llvm::detail::PunnedPointer.3" = type { [8 x i8] }
%"class.clang::Decl.base" = type <{ ptr, %"class.llvm::PointerIntPair", %"class.llvm::PointerUnion", %"class.clang::SourceLocation", i32, i8 }>
%"class.llvm::PointerUnion.429" = type { %"class.llvm::pointer_union_detail::PointerUnionMembers.430" }
%"class.llvm::pointer_union_detail::PointerUnionMembers.430" = type { %"class.llvm::pointer_union_detail::PointerUnionMembers.431" }
%"class.llvm::pointer_union_detail::PointerUnionMembers.431" = type { %"class.llvm::pointer_union_detail::PointerUnionMembers.432" }
%"class.llvm::pointer_union_detail::PointerUnionMembers.432" = type { %"class.llvm::PointerIntPair.433" }
%"class.llvm::PointerIntPair.433" = type { %"struct.llvm::detail::PunnedPointer.3" }
%"class.clang::DeclaratorDecl.base" = type <{ %"class.clang::ValueDecl", %"class.llvm::PointerUnion.438", %"class.clang::SourceLocation" }>
%"class.clang::ValueDecl" = type { %"class.clang::NamedDecl", %"class.clang::QualType" }
%"class.clang::NamedDecl" = type { %"class.clang::Decl.base", %"class.clang::DeclarationName" }
%"class.clang::DeclarationName" = type { i64 }
%"class.llvm::PointerUnion.438" = type { %"class.llvm::pointer_union_detail::PointerUnionMembers.439" }
%"class.llvm::pointer_union_detail::PointerUnionMembers.439" = type { %"class.llvm::pointer_union_detail::PointerUnionMembers.440" }
%"class.llvm::pointer_union_detail::PointerUnionMembers.440" = type { %"class.llvm::pointer_union_detail::PointerUnionMembers.441" }
%"class.llvm::pointer_union_detail::PointerUnionMembers.441" = type { %"class.llvm::PointerIntPair.442" }
%"class.llvm::PointerIntPair.442" = type { %"struct.llvm::detail::PunnedPointer.3" }
%"class.clang::Redeclarable.509" = type { %"class.clang::Redeclarable<clang::VarDecl>::DeclLink", ptr }
%"class.clang::Redeclarable<clang::VarDecl>::DeclLink" = type { %"class.llvm::PointerUnion.429" }
%"class.llvm::PointerUnion.510" = type { %"class.llvm::pointer_union_detail::PointerUnionMembers.511" }
%"class.llvm::pointer_union_detail::PointerUnionMembers.511" = type { %"class.llvm::pointer_union_detail::PointerUnionMembers.512" }
%"class.llvm::pointer_union_detail::PointerUnionMembers.512" = type { %"class.llvm::pointer_union_detail::PointerUnionMembers.513" }
%"class.llvm::pointer_union_detail::PointerUnionMembers.513" = type { %"class.llvm::PointerIntPair.514" }
%"class.llvm::PointerIntPair.514" = type { %"struct.llvm::detail::PunnedPointer.3" }
%union.anon.515 = type { i32 }
%"class.clang::VarDecl" = type <{ %"class.clang::DeclaratorDecl.base", [4 x i8], %"class.clang::Redeclarable.509", %"class.llvm::PointerUnion.510", %union.anon.515, [4 x i8] }>

; Function Attrs: mustprogress nounwind uwtable
define dso_local void @_ZN5clang11ParmVarDecl22setParameterIndexLargeEj(ptr noundef nonnull align 8 dereferenceable(104) %0, i32 noundef %1) #0 align 2 {
  %3 = alloca ptr, align 8
  %4 = alloca i32, align 4
  store ptr %0, ptr %3, align 8
  store i32 %1, ptr %4, align 4
  %5 = load ptr, ptr %3, align 8
  %6 = call noundef nonnull align 8 dereferenceable(23096) ptr @_ZNK5clang4Decl13getASTContextEv(ptr noundef nonnull align 8 dereferenceable(33) %5) #12
  %7 = load i32, ptr %4, align 4
  call void @_ZN5clang10ASTContext17setParameterIndexEPKNS_11ParmVarDeclEj(ptr noundef nonnull align 8 dereferenceable(23096) %6, ptr noundef %5, i32 noundef %7)
  %8 = getelementptr inbounds nuw %"class.clang::VarDecl", ptr %5, i32 0, i32 4
  %9 = load i32, ptr %8, align 8
  %10 = and i32 %9, -267386881
  %11 = or i32 %10, 267386880
  store i32 %11, ptr %8, align 8
  ret void
}