; Function Attrs: mustprogress nounwind uwtable
define dso_local void @_ZN5clang11ParmVarDecl22setParameterIndexLargeEj(ptr noundef nonnull align 8 dereferenceable(104) %0, i32 noundef %1) local_unnamed_addr #2 align 2 {
  %3 = tail call noundef nonnull align 8 dereferenceable(23096) ptr @_ZNK5clang4Decl13getASTContextEv(ptr noundef nonnull align 8 dereferenceable(33) %0) #26
  tail call void @_ZN5clang10ASTContext17setParameterIndexEPKNS_11ParmVarDeclEj(ptr noundef nonnull align 8 dereferenceable(23096) %3, ptr noundef nonnull %0, i32 noundef %1) #27
  %4 = getelementptr inbounds nuw i8, ptr %0, i64 96
  %5 = load i32, ptr %4, align 8
  %6 = or i32 %5, 267386880
  store i32 %6, ptr %4, align 8
  ret void
}